target datalayout = "e-m:e-p270:32:32-p271:32:32-p272:64:64-i64:64-i128:128-f80:128-n8:16:32:64-S128"
target triple = "x86_64-pc-linux-gnu"

%struct._someip_parameter_list = type { i32, i32, i32, i32, i8, i32, ptr }

; Function Attrs: null_pointer_is_valid sspstrong uwtable
define internal void @free_someip_parameter_list(ptr noundef %0) #0 {
  %2 = alloca ptr, align 8
  %3 = alloca ptr, align 8
  store ptr %0, ptr %2, align 8
  call void @llvm.lifetime.start.p0(i64 8, ptr %3) #19
  %4 = load ptr, ptr %2, align 8
  store ptr %4, ptr %3, align 8
  %5 = load ptr, ptr %3, align 8
  %6 = getelementptr inbounds nuw %struct._someip_parameter_list, ptr %5, i32 0, i32 6
  %7 = load ptr, ptr %6, align 8
  %8 = icmp ne ptr %7, null
  br i1 %8, label %9, label %16

9:                                                ; preds = %1
  %10 = call ptr @wmem_epan_scope()
  %11 = load ptr, ptr %3, align 8
  %12 = getelementptr inbounds nuw %struct._someip_parameter_list, ptr %11, i32 0, i32 6
  %13 = load ptr, ptr %12, align 8
  call void @wmem_free(ptr noundef %10, ptr noundef %13)
  %14 = load ptr, ptr %3, align 8
  %15 = getelementptr inbounds nuw %struct._someip_parameter_list, ptr %14, i32 0, i32 6
  store ptr null, ptr %15, align 8
  br label %16

16:                                               ; preds = %9, %1
  %17 = call ptr @wmem_epan_scope()
  %18 = load ptr, ptr %2, align 8
  call void @wmem_free(ptr noundef %17, ptr noundef %18)
  call void @llvm.lifetime.end.p0(i64 8, ptr %3) #19
  ret void
}